target datalayout = "e-m:e-p270:32:32-p271:32:32-p272:64:64-i64:64-i128:128-f80:128-n8:16:32:64-S128"
target triple = "x86_64-unknown-linux-gnu"

%"class.icu_75::UnicodeSet" = type <{ %"class.icu_75::UnicodeFilter", ptr, i32, i32, i8, [7 x i8], ptr, ptr, i32, [4 x i8], ptr, i32, [4 x i8], ptr, ptr, [25 x i32], [4 x i8] }>
%"class.icu_75::UnicodeFilter" = type { %"class.icu_75::UnicodeFunctor", %"class.icu_75::UnicodeMatcher" }
%"class.icu_75::UnicodeFunctor" = type { %"class.icu_75::UObject" }
%"class.icu_75::UObject" = type { ptr }
%"class.icu_75::UnicodeMatcher" = type { ptr }

; Function Attrs: mustprogress nounwind uwtable
define internal noundef i32 @_ZN6icu_75L12pinCodePointERi(ptr noundef nonnull align 4 dereferenceable(4) %c) #0 {
entry:
  %c.addr = alloca ptr, align 8
  store ptr %c, ptr %c.addr, align 8
  %0 = load ptr, ptr %c.addr, align 8
  %1 = load i32, ptr %0, align 4
  %cmp = icmp slt i32 %1, 0
  br i1 %cmp, label %if.then, label %if.else

if.then:                                          ; preds = %entry
  %2 = load ptr, ptr %c.addr, align 8
  store i32 0, ptr %2, align 4
  br label %if.end3

if.else:                                          ; preds = %entry
  %3 = load ptr, ptr %c.addr, align 8
  %4 = load i32, ptr %3, align 4
  %cmp1 = icmp sgt i32 %4, 1114111
  br i1 %cmp1, label %if.then2, label %if.end

if.then2:                                         ; preds = %if.else
  %5 = load ptr, ptr %c.addr, align 8
  store i32 1114111, ptr %5, align 4
  br label %if.end

if.end:                                           ; preds = %if.then2, %if.else
  br label %if.end3

if.end3:                                          ; preds = %if.end, %if.then
  %6 = load ptr, ptr %c.addr, align 8
  %7 = load i32, ptr %6, align 4
  ret i32 %7
}

; Function Attrs: mustprogress nounwind uwtable
define linkonce_odr noundef signext i8 @_ZNK6icu_7510UnicodeSet7isBogusEv(ptr noundef nonnull align 8 dereferenceable(200) %this) #0 comdat align 2 {
entry:
  %this.addr = alloca ptr, align 8
  store ptr %this, ptr %this.addr, align 8
  %this1 = load ptr, ptr %this.addr, align 8
  %fFlags = getelementptr inbounds %"class.icu_75::UnicodeSet", ptr %this1, i32 0, i32 4
  %0 = load i8, ptr %fFlags, align 8
  %conv = zext i8 %0 to i32
  %and = and i32 %conv, 1
  %conv2 = trunc i32 %and to i8
  ret i8 %conv2
}

; Function Attrs: mustprogress uwtable
define void @_ZN6icu_7510UnicodeSet14releasePatternEv(ptr noundef nonnull align 8 dereferenceable(200) %this) #1 align 2 {
entry:
  %this.addr = alloca ptr, align 8
  store ptr %this, ptr %this.addr, align 8
  %this1 = load ptr, ptr %this.addr, align 8
  %pat = getelementptr inbounds %"class.icu_75::UnicodeSet", ptr %this1, i32 0, i32 10
  %0 = load ptr, ptr %pat, align 8
  %tobool = icmp ne ptr %0, null
  br i1 %tobool, label %if.then, label %if.end

if.then:                                          ; preds = %entry
  %pat2 = getelementptr inbounds %"class.icu_75::UnicodeSet", ptr %this1, i32 0, i32 10
  %1 = load ptr, ptr %pat2, align 8
  call void @uprv_free_75(ptr noundef %1)
  %pat3 = getelementptr inbounds %"class.icu_75::UnicodeSet", ptr %this1, i32 0, i32 10
  store ptr null, ptr %pat3, align 8
  %patLen = getelementptr inbounds %"class.icu_75::UnicodeSet", ptr %this1, i32 0, i32 11
  store i32 0, ptr %patLen, align 8
  br label %if.end

if.end:                                           ; preds = %if.then, %entry
  ret void
}

; Function Attrs: mustprogress nounwind uwtable
define linkonce_odr noundef signext i8 @_ZNK6icu_7510UnicodeSet8isFrozenEv(ptr noundef nonnull align 8 dereferenceable(200) %this) #0 comdat align 2 {
entry:
  %this.addr = alloca ptr, align 8
  store ptr %this, ptr %this.addr, align 8
  %this1 = load ptr, ptr %this.addr, align 8
  %bmpSet = getelementptr inbounds %"class.icu_75::UnicodeSet", ptr %this1, i32 0, i32 6
  %0 = load ptr, ptr %bmpSet, align 8
  %cmp = icmp ne ptr %0, null
  br i1 %cmp, label %lor.end, label %lor.rhs

lor.rhs:                                          ; preds = %entry
  %stringSpan = getelementptr inbounds %"class.icu_75::UnicodeSet", ptr %this1, i32 0, i32 14
  %1 = load ptr, ptr %stringSpan, align 8
  %cmp2 = icmp ne ptr %1, null
  br label %lor.end

lor.end:                                          ; preds = %lor.rhs, %entry
  %2 = phi i1 [ true, %entry ], [ %cmp2, %lor.rhs ]
  %conv = zext i1 %2 to i8
  ret i8 %conv
}

; Function Attrs: mustprogress uwtable
define noundef nonnull align 8 dereferenceable(200) ptr @_ZN6icu_7510UnicodeSet10complementEii(ptr noundef nonnull align 8 dereferenceable(200) %this, i32 noundef %start, i32 noundef %end) unnamed_addr #1 align 2 {
entry:
  %retval = alloca ptr, align 8
  %this.addr = alloca ptr, align 8
  %start.addr = alloca i32, align 4
  %end.addr = alloca i32, align 4
  %range = alloca [3 x i32], align 4
  store ptr %this, ptr %this.addr, align 8
  store i32 %start, ptr %start.addr, align 4
  store i32 %end, ptr %end.addr, align 4
  %this1 = load ptr, ptr %this.addr, align 8
  %call = call noundef signext i8 @_ZNK6icu_7510UnicodeSet8isFrozenEv(ptr noundef nonnull align 8 dereferenceable(200) %this1)
  %tobool = icmp ne i8 %call, 0
  br i1 %tobool, label %if.then, label %lor.lhs.false

lor.lhs.false:                                    ; preds = %entry
  %call2 = call noundef signext i8 @_ZNK6icu_7510UnicodeSet7isBogusEv(ptr noundef nonnull align 8 dereferenceable(200) %this1)
  %tobool3 = icmp ne i8 %call2, 0
  br i1 %tobool3, label %if.then, label %if.end

if.then:                                          ; preds = %lor.lhs.false, %entry
  store ptr %this1, ptr %retval, align 8
  br label %return

if.end:                                           ; preds = %lor.lhs.false
  %call4 = call noundef i32 @_ZN6icu_75L12pinCodePointERi(ptr noundef nonnull align 4 dereferenceable(4) %start.addr)
  %call5 = call noundef i32 @_ZN6icu_75L12pinCodePointERi(ptr noundef nonnull align 4 dereferenceable(4) %end.addr)
  %cmp = icmp sle i32 %call4, %call5
  br i1 %cmp, label %if.then6, label %if.end8

if.then6:                                         ; preds = %if.end
  %arrayinit.begin = getelementptr inbounds [3 x i32], ptr %range, i64 0, i64 0
  %0 = load i32, ptr %start.addr, align 4
  store i32 %0, ptr %arrayinit.begin, align 4
  %arrayinit.element = getelementptr inbounds i32, ptr %arrayinit.begin, i64 1
  %1 = load i32, ptr %end.addr, align 4
  %add = add nsw i32 %1, 1
  store i32 %add, ptr %arrayinit.element, align 4
  %arrayinit.element7 = getelementptr inbounds i32, ptr %arrayinit.element, i64 1
  store i32 1114112, ptr %arrayinit.element7, align 4
  %arraydecay = getelementptr inbounds [3 x i32], ptr %range, i64 0, i64 0
  call void @_ZN6icu_7510UnicodeSet11exclusiveOrEPKiia(ptr noundef nonnull align 8 dereferenceable(200) %this1, ptr noundef %arraydecay, i32 noundef 2, i8 noundef signext 0)
  br label %if.end8

if.end8:                                          ; preds = %if.then6, %if.end
  call void @_ZN6icu_7510UnicodeSet14releasePatternEv(ptr noundef nonnull align 8 dereferenceable(200) %this1)
  store ptr %this1, ptr %retval, align 8
  br label %return

return:                                           ; preds = %if.end8, %if.then
  %2 = load ptr, ptr %retval, align 8
  ret ptr %2
}

; Function Attrs: mustprogress uwtable
define noundef nonnull align 8 dereferenceable(200) ptr @_ZN6icu_7510UnicodeSet5clearEv(ptr noundef nonnull align 8 dereferenceable(200) %this) unnamed_addr #1 align 2 {
entry:
  %retval = alloca ptr, align 8
  %this.addr = alloca ptr, align 8
  store ptr %this, ptr %this.addr, align 8
  %this1 = load ptr, ptr %this.addr, align 8
  %call = call noundef signext i8 @_ZNK6icu_7510UnicodeSet8isFrozenEv(ptr noundef nonnull align 8 dereferenceable(200) %this1)
  %tobool = icmp ne i8 %call, 0
  br i1 %tobool, label %if.then, label %if.end

if.then:                                          ; preds = %entry
  store ptr %this1, ptr %retval, align 8
  br label %return

if.end:                                           ; preds = %entry
  %list = getelementptr inbounds %"class.icu_75::UnicodeSet", ptr %this1, i32 0, i32 1
  %0 = load ptr, ptr %list, align 8
  %arrayidx = getelementptr inbounds i32, ptr %0, i64 0
  store i32 1114112, ptr %arrayidx, align 4
  %len = getelementptr inbounds %"class.icu_75::UnicodeSet", ptr %this1, i32 0, i32 3
  store i32 1, ptr %len, align 4
  call void @_ZN6icu_7510UnicodeSet14releasePatternEv(ptr noundef nonnull align 8 dereferenceable(200) %this1)
  %strings = getelementptr inbounds %"class.icu_75::UnicodeSet", ptr %this1, i32 0, i32 13
  %1 = load ptr, ptr %strings, align 8
  %cmp = icmp ne ptr %1, null
  br i1 %cmp, label %if.then2, label %if.end4

if.then2:                                         ; preds = %if.end
  %strings3 = getelementptr inbounds %"class.icu_75::UnicodeSet", ptr %this1, i32 0, i32 13
  %2 = load ptr, ptr %strings3, align 8
  call void @_ZN6icu_757UVector17removeAllElementsEv(ptr noundef nonnull align 8 dereferenceable(40) %2)
  br label %if.end4

if.end4:                                          ; preds = %if.then2, %if.end
  %fFlags = getelementptr inbounds %"class.icu_75::UnicodeSet", ptr %this1, i32 0, i32 4
  store i8 0, ptr %fFlags, align 8
  store ptr %this1, ptr %retval, align 8
  br label %return

return:                                           ; preds = %if.end4, %if.then
  %3 = load ptr, ptr %retval, align 8
  ret ptr %3
}

; Function Attrs: mustprogress uwtable
define noundef nonnull align 8 dereferenceable(200) ptr @_ZN6icu_7510UnicodeSet3setEii(ptr noundef nonnull align 8 dereferenceable(200) %this, i32 noundef %start, i32 noundef %end) #1 align 2 {
entry:
  %this.addr = alloca ptr, align 8
  %start.addr = alloca i32, align 4
  %end.addr = alloca i32, align 4
  store ptr %this, ptr %this.addr, align 8
  store i32 %start, ptr %start.addr, align 4
  store i32 %end, ptr %end.addr, align 4
  %this1 = load ptr, ptr %this.addr, align 8
  %call = call noundef nonnull align 8 dereferenceable(200) ptr @_ZN6icu_7510UnicodeSet5clearEv(ptr noundef nonnull align 8 dereferenceable(200) %this1)
  %0 = load i32, ptr %start.addr, align 4
  %1 = load i32, ptr %end.addr, align 4
  %call2 = call noundef nonnull align 8 dereferenceable(200) ptr @_ZN6icu_7510UnicodeSet10complementEii(ptr noundef nonnull align 8 dereferenceable(200) %this1, i32 noundef %0, i32 noundef %1)
  ret ptr %this1
}