; Function Attrs: mustprogress uwtable
define noundef nonnull align 8 dereferenceable(200) ptr @_ZN6icu_7510UnicodeSet3setEii(ptr noundef nonnull returned align 8 dereferenceable(200) %this, i32 noundef %start, i32 noundef %end) local_unnamed_addr #1 align 2 {
entry:
  %range.i = alloca [3 x i32], align 4
  %bmpSet.i.i = getelementptr inbounds i8, ptr %this, i64 40
  %0 = load ptr, ptr %bmpSet.i.i, align 8
  %cmp.not.i.i = icmp eq ptr %0, null
  %stringSpan.i.i = getelementptr inbounds i8, ptr %this, i64 88
  %1 = load ptr, ptr %stringSpan.i.i, align 8
  %cmp2.i.i = icmp eq ptr %1, null
  %narrow.i.not.i = select i1 %cmp.not.i.i, i1 %cmp2.i.i, i1 false
  br i1 %narrow.i.not.i, label %if.end.i, label %_ZN6icu_7510UnicodeSet5clearEv.exit

if.end.i:                                         ; preds = %entry
  %list.i = getelementptr inbounds i8, ptr %this, i64 16
  %2 = load ptr, ptr %list.i, align 8
  store i32 1114112, ptr %2, align 4
  %len.i = getelementptr inbounds i8, ptr %this, i64 28
  store i32 1, ptr %len.i, align 4
  %pat.i.i = getelementptr inbounds i8, ptr %this, i64 64
  %3 = load ptr, ptr %pat.i.i, align 8
  %tobool.not.i.i = icmp eq ptr %3, null
  br i1 %tobool.not.i.i, label %_ZN6icu_7510UnicodeSet14releasePatternEv.exit.i, label %if.then.i.i

if.then.i.i:                                      ; preds = %if.end.i
  tail call void @uprv_free_75(ptr noundef nonnull %3)
  store ptr null, ptr %pat.i.i, align 8
  %patLen.i.i = getelementptr inbounds i8, ptr %this, i64 72
  store i32 0, ptr %patLen.i.i, align 8
  br label %_ZN6icu_7510UnicodeSet14releasePatternEv.exit.i

_ZN6icu_7510UnicodeSet14releasePatternEv.exit.i:  ; preds = %if.then.i.i, %if.end.i
  %strings.i = getelementptr inbounds i8, ptr %this, i64 80
  %4 = load ptr, ptr %strings.i, align 8
  %cmp.not.i = icmp eq ptr %4, null
  br i1 %cmp.not.i, label %if.end4.i, label %if.then2.i

if.then2.i:                                       ; preds = %_ZN6icu_7510UnicodeSet14releasePatternEv.exit.i
  tail call void @_ZN6icu_757UVector17removeAllElementsEv(ptr noundef nonnull align 8 dereferenceable(40) %4)
  br label %if.end4.i

if.end4.i:                                        ; preds = %if.then2.i, %_ZN6icu_7510UnicodeSet14releasePatternEv.exit.i
  %fFlags.i = getelementptr inbounds i8, ptr %this, i64 32
  store i8 0, ptr %fFlags.i, align 8
  %.pre = load ptr, ptr %bmpSet.i.i, align 8
  %.pre12 = load ptr, ptr %stringSpan.i.i, align 8
  br label %_ZN6icu_7510UnicodeSet5clearEv.exit

_ZN6icu_7510UnicodeSet5clearEv.exit:              ; preds = %entry, %if.end4.i
  %5 = phi ptr [ %1, %entry ], [ %.pre12, %if.end4.i ]
  %6 = phi ptr [ %0, %entry ], [ %.pre, %if.end4.i ]
  call void @llvm.lifetime.start.p0(i64 12, ptr nonnull %range.i)
  %cmp.not.i.i2 = icmp eq ptr %6, null
  %cmp2.i.i4 = icmp eq ptr %5, null
  %narrow.i.not.i5 = select i1 %cmp.not.i.i2, i1 %cmp2.i.i4, i1 false
  br i1 %narrow.i.not.i5, label %lor.lhs.false.i, label %_ZN6icu_7510UnicodeSet10complementEii.exit

lor.lhs.false.i:                                  ; preds = %_ZN6icu_7510UnicodeSet5clearEv.exit
  %fFlags.i.i = getelementptr inbounds i8, ptr %this, i64 32
  %7 = load i8, ptr %fFlags.i.i, align 8
  %8 = and i8 %7, 1
  %tobool3.not.i = icmp eq i8 %8, 0
  br i1 %tobool3.not.i, label %if.end.i6, label %_ZN6icu_7510UnicodeSet10complementEii.exit

if.end.i6:                                        ; preds = %lor.lhs.false.i
  %cmp.i.i = icmp sgt i32 %start, -1
  %spec.select9.i = tail call i32 @llvm.umin.i32(i32 %start, i32 1114111)
  %cmp.i1.i = icmp slt i32 %end, 0
  %spec.select11.i = tail call i32 @llvm.umin.i32(i32 %end, i32 1114111)
  %9 = select i1 %cmp.i1.i, i32 0, i32 %spec.select11.i
  %cmp.not12.i = icmp ugt i32 %spec.select9.i, %9
  %cmp.not.i7 = and i1 %cmp.i.i, %cmp.not12.i
  br i1 %cmp.not.i7, label %if.end8.i, label %if.then6.i

if.then6.i:                                       ; preds = %if.end.i6
  %10 = add nuw nsw i32 %spec.select11.i, 1
  %start.addr.0.i = select i1 %cmp.i.i, i32 %spec.select9.i, i32 0
  store i32 %start.addr.0.i, ptr %range.i, align 4
  %arrayinit.element.i = getelementptr inbounds i8, ptr %range.i, i64 4
  %add.i = select i1 %cmp.i1.i, i32 1, i32 %10
  store i32 %add.i, ptr %arrayinit.element.i, align 4
  %arrayinit.element7.i = getelementptr inbounds i8, ptr %range.i, i64 8
  store i32 1114112, ptr %arrayinit.element7.i, align 4
  call void @_ZN6icu_7510UnicodeSet11exclusiveOrEPKiia(ptr noundef nonnull align 8 dereferenceable(200) %this, ptr noundef nonnull %range.i, i32 noundef 2, i8 noundef signext 0)
  br label %if.end8.i

if.end8.i:                                        ; preds = %if.then6.i, %if.end.i6
  %pat.i.i8 = getelementptr inbounds i8, ptr %this, i64 64
  %11 = load ptr, ptr %pat.i.i8, align 8
  %tobool.not.i.i9 = icmp eq ptr %11, null
  br i1 %tobool.not.i.i9, label %_ZN6icu_7510UnicodeSet10complementEii.exit, label %if.then.i.i10

if.then.i.i10:                                    ; preds = %if.end8.i
  tail call void @uprv_free_75(ptr noundef nonnull %11)
  store ptr null, ptr %pat.i.i8, align 8
  %patLen.i.i11 = getelementptr inbounds i8, ptr %this, i64 72
  store i32 0, ptr %patLen.i.i11, align 8
  br label %_ZN6icu_7510UnicodeSet10complementEii.exit

_ZN6icu_7510UnicodeSet10complementEii.exit:       ; preds = %_ZN6icu_7510UnicodeSet5clearEv.exit, %lor.lhs.false.i, %if.end8.i, %if.then.i.i10
  call void @llvm.lifetime.end.p0(i64 12, ptr nonnull %range.i)
  ret ptr %this
}